target datalayout = "e-m:e-p270:32:32-p271:32:32-p272:64:64-i64:64-i128:128-f80:128-n8:16:32:64-S128"
target triple = "x86_64-pc-linux-gnu"

%struct.AVStream = type { ptr, i32, i32, ptr, ptr, %struct.AVRational, i64, i64, i64, i32, i32, %struct.AVRational, ptr, %struct.AVRational, %struct.AVPacket, i32, %struct.AVRational, i32 }
%struct.AVPacket = type { ptr, i64, i64, ptr, i32, i32, i32, ptr, i32, i64, i64, ptr, ptr, %struct.AVRational }
%struct.AVRational = type { i32, i32 }
%struct.AVCodecParameters = type { i32, i32, i32, ptr, i32, ptr, i32, i32, i64, i32, i32, i32, i32, i32, i32, %struct.AVRational, %struct.AVRational, i32, i32, i32, i32, i32, i32, i32, %struct.AVChannelLayout, i32, i32, i32, i32, i32, i32 }
%struct.AVChannelLayout = type { i32, i32, %union.anon, ptr }
%union.anon = type { i64 }

@frame_sizes_nb = internal constant [16 x i8] c"\0C\0D\0F\11\13\14\1A\1F\05\00\00\00\00\00\00\00", align 16
@frame_sizes_wb = internal constant [16 x i8] c"\11\17 $(.2:<\05\05\00\00\00\00\00", align 16
@.str.11 = private unnamed_addr constant [14 x i8] c"Bad codec ID\0A\00", align 1
@.str.12 = private unnamed_addr constant [28 x i8] c"Only mono AMR is supported\0A\00", align 1
@.str.13 = private unnamed_addr constant [22 x i8] c"No speech data found\0A\00", align 1
@.str.14 = private unnamed_addr constant [15 x i8] c"Out of memory\0A\00", align 1
@.str.15 = private unnamed_addr constant [42 x i8] c"Too little speech data in the RTP packet\0A\00", align 1
@.str.16 = private unnamed_addr constant [41 x i8] c"Too much speech data in the RTP packet?\0A\00", align 1

; Function Attrs: nounwind uwtable
define internal i32 @amr_handle_packet(ptr noundef %0, ptr noundef %1, ptr noundef %2, ptr noundef %3, ptr noundef %4, ptr noundef %5, i32 noundef %6, i16 noundef zeroext %7, i32 noundef %8) #1 {
  %10 = alloca i32, align 4
  %11 = alloca ptr, align 8
  %12 = alloca ptr, align 8
  %13 = alloca ptr, align 8
  %14 = alloca ptr, align 8
  %15 = alloca ptr, align 8
  %16 = alloca ptr, align 8
  %17 = alloca i32, align 4
  %18 = alloca i16, align 2
  %19 = alloca i32, align 4
  %20 = alloca ptr, align 8
  %21 = alloca i32, align 4
  %22 = alloca i32, align 4
  %23 = alloca i32, align 4
  %24 = alloca ptr, align 8
  %25 = alloca ptr, align 8
  %26 = alloca i32, align 4
  %27 = alloca i8, align 1
  %28 = alloca i32, align 4
  store ptr %0, ptr %11, align 8, !tbaa !4
  store ptr %1, ptr %12, align 8, !tbaa !11
  store ptr %2, ptr %13, align 8, !tbaa !32
  store ptr %3, ptr %14, align 8, !tbaa !37
  store ptr %4, ptr %15, align 8, !tbaa !39
  store ptr %5, ptr %16, align 8, !tbaa !15
  store i32 %6, ptr %17, align 4, !tbaa !9
  store i16 %7, ptr %18, align 2, !tbaa !41
  store i32 %8, ptr %19, align 4, !tbaa !9
  call void @llvm.lifetime.start.p0(i64 8, ptr %20) #9
  store ptr null, ptr %20, align 8, !tbaa !15
  call void @llvm.lifetime.start.p0(i64 4, ptr %21) #9
  call void @llvm.lifetime.start.p0(i64 4, ptr %22) #9
  call void @llvm.lifetime.start.p0(i64 4, ptr %23) #9
  call void @llvm.lifetime.start.p0(i64 8, ptr %24) #9
  call void @llvm.lifetime.start.p0(i64 8, ptr %25) #9
  %29 = load ptr, ptr %13, align 8, !tbaa !32
  %30 = getelementptr inbounds nuw %struct.AVStream, ptr %29, i32 0, i32 3
  %31 = load ptr, ptr %30, align 8, !tbaa !43
  %32 = getelementptr inbounds nuw %struct.AVCodecParameters, ptr %31, i32 0, i32 1
  %33 = load i32, ptr %32, align 4, !tbaa !50
  %34 = icmp eq i32 %33, 73728
  br i1 %34, label %35, label %36

35:                                               ; preds = %9
  store ptr @frame_sizes_nb, ptr %20, align 8, !tbaa !15
  br label %47

36:                                               ; preds = %9
  %37 = load ptr, ptr %13, align 8, !tbaa !32
  %38 = getelementptr inbounds nuw %struct.AVStream, ptr %37, i32 0, i32 3
  %39 = load ptr, ptr %38, align 8, !tbaa !43
  %40 = getelementptr inbounds nuw %struct.AVCodecParameters, ptr %39, i32 0, i32 1
  %41 = load i32, ptr %40, align 4, !tbaa !50
  %42 = icmp eq i32 %41, 73729
  br i1 %42, label %43, label %44

43:                                               ; preds = %36
  store ptr @frame_sizes_wb, ptr %20, align 8, !tbaa !15
  br label %46

44:                                               ; preds = %36
  %45 = load ptr, ptr %11, align 8, !tbaa !4
  call void (ptr, i32, ptr, ...) @av_log(ptr noundef %45, i32 noundef 16, ptr noundef @.str.11)
  store i32 -1094995529, ptr %10, align 4
  store i32 1, ptr %26, align 4
  br label %223

46:                                               ; preds = %43
  br label %47

47:                                               ; preds = %46, %35
  %48 = load ptr, ptr %13, align 8, !tbaa !32
  %49 = getelementptr inbounds nuw %struct.AVStream, ptr %48, i32 0, i32 3
  %50 = load ptr, ptr %49, align 8, !tbaa !43
  %51 = getelementptr inbounds nuw %struct.AVCodecParameters, ptr %50, i32 0, i32 24
  %52 = getelementptr inbounds nuw %struct.AVChannelLayout, ptr %51, i32 0, i32 1
  %53 = load i32, ptr %52, align 4, !tbaa !53
  %54 = icmp ne i32 %53, 1
  br i1 %54, label %55, label %57

55:                                               ; preds = %47
  %56 = load ptr, ptr %11, align 8, !tbaa !4
  call void (ptr, i32, ptr, ...) @av_log(ptr noundef %56, i32 noundef 16, ptr noundef @.str.12)
  store i32 -1094995529, ptr %10, align 4
  store i32 1, ptr %26, align 4
  br label %223

57:                                               ; preds = %47
  %58 = load ptr, ptr %13, align 8, !tbaa !32
  %59 = getelementptr inbounds nuw %struct.AVStream, ptr %58, i32 0, i32 3
  %60 = load ptr, ptr %59, align 8, !tbaa !43
  %61 = getelementptr inbounds nuw %struct.AVCodecParameters, ptr %60, i32 0, i32 24
  call void @av_channel_layout_default(ptr noundef %61, i32 noundef 1)
  store i32 1, ptr %21, align 4, !tbaa !9
  br label %62

62:                                               ; preds = %78, %57
  %63 = load i32, ptr %21, align 4, !tbaa !9
  %64 = load i32, ptr %17, align 4, !tbaa !9
  %65 = icmp slt i32 %63, %64
  br i1 %65, label %66, label %75

66:                                               ; preds = %62
  %67 = load ptr, ptr %16, align 8, !tbaa !15
  %68 = load i32, ptr %21, align 4, !tbaa !9
  %69 = sext i32 %68 to i64
  %70 = getelementptr inbounds i8, ptr %67, i64 %69
  %71 = load i8, ptr %70, align 1, !tbaa !54
  %72 = zext i8 %71 to i32
  %73 = and i32 %72, 128
  %74 = icmp ne i32 %73, 0
  br label %75

75:                                               ; preds = %66, %62
  %76 = phi i1 [ false, %62 ], [ %74, %66 ]
  br i1 %76, label %77, label %81

77:                                               ; preds = %75
  br label %78

78:                                               ; preds = %77
  %79 = load i32, ptr %21, align 4, !tbaa !9
  %80 = add nsw i32 %79, 1
  store i32 %80, ptr %21, align 4, !tbaa !9
  br label %62, !llvm.loop !55

81:                                               ; preds = %75
  %82 = load i32, ptr %21, align 4, !tbaa !9
  %83 = add nsw i32 1, %82
  %84 = load i32, ptr %17, align 4, !tbaa !9
  %85 = icmp sge i32 %83, %84
  br i1 %85, label %86, label %88

86:                                               ; preds = %81
  %87 = load ptr, ptr %11, align 8, !tbaa !4
  call void (ptr, i32, ptr, ...) @av_log(ptr noundef %87, i32 noundef 16, ptr noundef @.str.13)
  store i32 -1094995529, ptr %10, align 4
  store i32 1, ptr %26, align 4
  br label %223

88:                                               ; preds = %81
  %89 = load ptr, ptr %16, align 8, !tbaa !15
  %90 = getelementptr inbounds i8, ptr %89, i64 1
  %91 = load i32, ptr %21, align 4, !tbaa !9
  %92 = sext i32 %91 to i64
  %93 = getelementptr inbounds i8, ptr %90, i64 %92
  store ptr %93, ptr %24, align 8, !tbaa !15
  %94 = load ptr, ptr %14, align 8, !tbaa !37
  %95 = load i32, ptr %17, align 4, !tbaa !9
  %96 = sub nsw i32 %95, 1
  %97 = call i32 @av_new_packet(ptr noundef %94, i32 noundef %96)
  store i32 %97, ptr %23, align 4, !tbaa !9
  %98 = icmp slt i32 %97, 0
  br i1 %98, label %99, label %102

99:                                               ; preds = %88
  %100 = load ptr, ptr %11, align 8, !tbaa !4
  call void (ptr, i32, ptr, ...) @av_log(ptr noundef %100, i32 noundef 16, ptr noundef @.str.14)
  %101 = load i32, ptr %23, align 4, !tbaa !9
  store i32 %101, ptr %10, align 4
  store i32 1, ptr %26, align 4
  br label %223

102:                                              ; preds = %88
  %103 = load ptr, ptr %13, align 8, !tbaa !32
  %104 = getelementptr inbounds nuw %struct.AVStream, ptr %103, i32 0, i32 1
  %105 = load i32, ptr %104, align 8, !tbaa !57
  %106 = load ptr, ptr %14, align 8, !tbaa !37
  %107 = getelementptr inbounds nuw %struct.AVPacket, ptr %106, i32 0, i32 5
  store i32 %105, ptr %107, align 4, !tbaa !58
  %108 = load ptr, ptr %14, align 8, !tbaa !37
  %109 = getelementptr inbounds nuw %struct.AVPacket, ptr %108, i32 0, i32 3
  %110 = load ptr, ptr %109, align 8, !tbaa !59
  store ptr %110, ptr %25, align 8, !tbaa !15
  store i32 0, ptr %22, align 4, !tbaa !9
  br label %111

111:                                              ; preds = %187, %102
  %112 = load i32, ptr %22, align 4, !tbaa !9
  %113 = load i32, ptr %21, align 4, !tbaa !9
  %114 = icmp slt i32 %112, %113
  br i1 %114, label %115, label %190

115:                                              ; preds = %111
  call void @llvm.lifetime.start.p0(i64 1, ptr %27) #9
  %116 = load ptr, ptr %16, align 8, !tbaa !15
  %117 = load i32, ptr %22, align 4, !tbaa !9
  %118 = add nsw i32 1, %117
  %119 = sext i32 %118 to i64
  %120 = getelementptr inbounds i8, ptr %116, i64 %119
  %121 = load i8, ptr %120, align 1, !tbaa !54
  store i8 %121, ptr %27, align 1, !tbaa !54
  call void @llvm.lifetime.start.p0(i64 4, ptr %28) #9
  %122 = load ptr, ptr %20, align 8, !tbaa !15
  %123 = load i8, ptr %27, align 1, !tbaa !54
  %124 = zext i8 %123 to i32
  %125 = ashr i32 %124, 3
  %126 = and i32 %125, 15
  %127 = sext i32 %126 to i64
  %128 = getelementptr inbounds i8, ptr %122, i64 %127
  %129 = load i8, ptr %128, align 1, !tbaa !54
  %130 = zext i8 %129 to i32
  store i32 %130, ptr %28, align 4, !tbaa !9
  %131 = load ptr, ptr %24, align 8, !tbaa !15
  %132 = load i32, ptr %28, align 4, !tbaa !9
  %133 = sext i32 %132 to i64
  %134 = getelementptr inbounds i8, ptr %131, i64 %133
  %135 = load ptr, ptr %16, align 8, !tbaa !15
  %136 = load i32, ptr %17, align 4, !tbaa !9
  %137 = sext i32 %136 to i64
  %138 = getelementptr inbounds i8, ptr %135, i64 %137
  %139 = icmp ugt ptr %134, %138
  br i1 %139, label %140, label %165

140:                                              ; preds = %115
  %141 = load ptr, ptr %11, align 8, !tbaa !4
  call void (ptr, i32, ptr, ...) @av_log(ptr noundef %141, i32 noundef 24, ptr noundef @.str.15)
  %142 = load ptr, ptr %25, align 8, !tbaa !15
  %143 = load ptr, ptr %14, align 8, !tbaa !37
  %144 = getelementptr inbounds nuw %struct.AVPacket, ptr %143, i32 0, i32 3
  %145 = load ptr, ptr %144, align 8, !tbaa !59
  %146 = load ptr, ptr %14, align 8, !tbaa !37
  %147 = getelementptr inbounds nuw %struct.AVPacket, ptr %146, i32 0, i32 4
  %148 = load i32, ptr %147, align 8, !tbaa !60
  %149 = sext i32 %148 to i64
  %150 = getelementptr inbounds i8, ptr %145, i64 %149
  %151 = load ptr, ptr %25, align 8, !tbaa !15
  %152 = ptrtoint ptr %150 to i64
  %153 = ptrtoint ptr %151 to i64
  %154 = sub i64 %152, %153
  call void @llvm.memset.p0.i64(ptr align 1 %142, i8 0, i64 %154, i1 false)
  %155 = load ptr, ptr %25, align 8, !tbaa !15
  %156 = load ptr, ptr %14, align 8, !tbaa !37
  %157 = getelementptr inbounds nuw %struct.AVPacket, ptr %156, i32 0, i32 3
  %158 = load ptr, ptr %157, align 8, !tbaa !59
  %159 = ptrtoint ptr %155 to i64
  %160 = ptrtoint ptr %158 to i64
  %161 = sub i64 %159, %160
  %162 = trunc i64 %161 to i32
  %163 = load ptr, ptr %14, align 8, !tbaa !37
  %164 = getelementptr inbounds nuw %struct.AVPacket, ptr %163, i32 0, i32 4
  store i32 %162, ptr %164, align 8, !tbaa !60
  store i32 0, ptr %10, align 4
  store i32 1, ptr %26, align 4
  br label %184

165:                                              ; preds = %115
  %166 = load i8, ptr %27, align 1, !tbaa !54
  %167 = zext i8 %166 to i32
  %168 = and i32 %167, 124
  %169 = trunc i32 %168 to i8
  %170 = load ptr, ptr %25, align 8, !tbaa !15
  %171 = getelementptr inbounds nuw i8, ptr %170, i32 1
  store ptr %171, ptr %25, align 8, !tbaa !15
  store i8 %169, ptr %170, align 1, !tbaa !54
  %172 = load ptr, ptr %25, align 8, !tbaa !15
  %173 = load ptr, ptr %24, align 8, !tbaa !15
  %174 = load i32, ptr %28, align 4, !tbaa !9
  %175 = sext i32 %174 to i64
  call void @llvm.memcpy.p0.p0.i64(ptr align 1 %172, ptr align 1 %173, i64 %175, i1 false)
  %176 = load i32, ptr %28, align 4, !tbaa !9
  %177 = load ptr, ptr %24, align 8, !tbaa !15
  %178 = sext i32 %176 to i64
  %179 = getelementptr inbounds i8, ptr %177, i64 %178
  store ptr %179, ptr %24, align 8, !tbaa !15
  %180 = load i32, ptr %28, align 4, !tbaa !9
  %181 = load ptr, ptr %25, align 8, !tbaa !15
  %182 = sext i32 %180 to i64
  %183 = getelementptr inbounds i8, ptr %181, i64 %182
  store ptr %183, ptr %25, align 8, !tbaa !15
  store i32 0, ptr %26, align 4
  br label %184

184:                                              ; preds = %165, %140
  call void @llvm.lifetime.end.p0(i64 4, ptr %28) #9
  call void @llvm.lifetime.end.p0(i64 1, ptr %27) #9
  %185 = load i32, ptr %26, align 4
  switch i32 %185, label %223 [
    i32 0, label %186
  ]

186:                                              ; preds = %184
  br label %187

187:                                              ; preds = %186
  %188 = load i32, ptr %22, align 4, !tbaa !9
  %189 = add nsw i32 %188, 1
  store i32 %189, ptr %22, align 4, !tbaa !9
  br label %111, !llvm.loop !61

190:                                              ; preds = %111
  %191 = load ptr, ptr %24, align 8, !tbaa !15
  %192 = load ptr, ptr %16, align 8, !tbaa !15
  %193 = load i32, ptr %17, align 4, !tbaa !9
  %194 = sext i32 %193 to i64
  %195 = getelementptr inbounds i8, ptr %192, i64 %194
  %196 = icmp ult ptr %191, %195
  br i1 %196, label %197, label %222

197:                                              ; preds = %190
  %198 = load ptr, ptr %11, align 8, !tbaa !4
  call void (ptr, i32, ptr, ...) @av_log(ptr noundef %198, i32 noundef 24, ptr noundef @.str.16)
  %199 = load ptr, ptr %25, align 8, !tbaa !15
  %200 = load ptr, ptr %14, align 8, !tbaa !37
  %201 = getelementptr inbounds nuw %struct.AVPacket, ptr %200, i32 0, i32 3
  %202 = load ptr, ptr %201, align 8, !tbaa !59
  %203 = load ptr, ptr %14, align 8, !tbaa !37
  %204 = getelementptr inbounds nuw %struct.AVPacket, ptr %203, i32 0, i32 4
  %205 = load i32, ptr %204, align 8, !tbaa !60
  %206 = sext i32 %205 to i64
  %207 = getelementptr inbounds i8, ptr %202, i64 %206
  %208 = load ptr, ptr %25, align 8, !tbaa !15
  %209 = ptrtoint ptr %207 to i64
  %210 = ptrtoint ptr %208 to i64
  %211 = sub i64 %209, %210
  call void @llvm.memset.p0.i64(ptr align 1 %199, i8 0, i64 %211, i1 false)
  %212 = load ptr, ptr %25, align 8, !tbaa !15
  %213 = load ptr, ptr %14, align 8, !tbaa !37
  %214 = getelementptr inbounds nuw %struct.AVPacket, ptr %213, i32 0, i32 3
  %215 = load ptr, ptr %214, align 8, !tbaa !59
  %216 = ptrtoint ptr %212 to i64
  %217 = ptrtoint ptr %215 to i64
  %218 = sub i64 %216, %217
  %219 = trunc i64 %218 to i32
  %220 = load ptr, ptr %14, align 8, !tbaa !37
  %221 = getelementptr inbounds nuw %struct.AVPacket, ptr %220, i32 0, i32 4
  store i32 %219, ptr %221, align 8, !tbaa !60
  br label %222

222:                                              ; preds = %197, %190
  store i32 0, ptr %10, align 4
  store i32 1, ptr %26, align 4
  br label %223

223:                                              ; preds = %222, %184, %99, %86, %55, %44
  call void @llvm.lifetime.end.p0(i64 8, ptr %25) #9
  call void @llvm.lifetime.end.p0(i64 8, ptr %24) #9
  call void @llvm.lifetime.end.p0(i64 4, ptr %23) #9
  call void @llvm.lifetime.end.p0(i64 4, ptr %22) #9
  call void @llvm.lifetime.end.p0(i64 4, ptr %21) #9
  call void @llvm.lifetime.end.p0(i64 8, ptr %20) #9
  %224 = load i32, ptr %10, align 4
  ret i32 %224
}