; Function Attrs: nounwind uwtable
define internal range(i32 -2147483648, 1) i32 @amr_handle_packet(ptr noundef %0, ptr readnone captures(none) %1, ptr noundef readonly captures(none) %2, ptr noundef %3, ptr readnone captures(none) %4, ptr noundef readonly captures(address) %5, i32 noundef %6, i16 zeroext %7, i32 %8) #1 {
  %10 = getelementptr inbounds nuw i8, ptr %2, i64 16
  %11 = load ptr, ptr %10, align 8, !tbaa !32
  %12 = getelementptr inbounds nuw i8, ptr %11, i64 4
  %13 = load i32, ptr %12, align 4, !tbaa !39
  switch i32 %13, label %15 [
    i32 73728, label %16
    i32 73729, label %14
  ]

14:                                               ; preds = %9
  br label %16

15:                                               ; preds = %9
  tail call void (ptr, i32, ptr, ...) @av_log(ptr noundef %0, i32 noundef 16, ptr noundef nonnull @.str.11) #9
  br label %86

16:                                               ; preds = %9, %14
  %.063 = phi ptr [ @frame_sizes_wb, %14 ], [ @frame_sizes_nb, %9 ]
  %17 = getelementptr inbounds nuw i8, ptr %11, i64 132
  %18 = load i32, ptr %17, align 4, !tbaa !42
  %.not = icmp eq i32 %18, 1
  br i1 %.not, label %20, label %19

19:                                               ; preds = %16
  tail call void (ptr, i32, ptr, ...) @av_log(ptr noundef %0, i32 noundef 16, ptr noundef nonnull @.str.12) #9
  br label %86

20:                                               ; preds = %16
  %21 = getelementptr inbounds nuw i8, ptr %11, i64 128
  tail call void @av_channel_layout_default(ptr noundef nonnull %21, i32 noundef 1) #9
  %22 = icmp sgt i32 %6, 1
  br i1 %22, label %.lr.ph.preheader, label %.critedge

.lr.ph.preheader:                                 ; preds = %20
  %wide.trip.count = zext nneg i32 %6 to i64
  br label %.lr.ph

.lr.ph:                                           ; preds = %.lr.ph.preheader, %25
  %indvars.iv = phi i64 [ 1, %.lr.ph.preheader ], [ %indvars.iv.next, %25 ]
  %23 = getelementptr inbounds nuw i8, ptr %5, i64 %indvars.iv
  %24 = load i8, ptr %23, align 1, !tbaa !43
  %.not75 = icmp sgt i8 %24, -1
  br i1 %.not75, label %.critedge.loopexit.split.loop.exit100, label %25

25:                                               ; preds = %.lr.ph
  %indvars.iv.next = add nuw nsw i64 %indvars.iv, 1
  %exitcond.not = icmp eq i64 %indvars.iv.next, %wide.trip.count
  br i1 %exitcond.not, label %.critedge, label %.lr.ph, !llvm.loop !44

.critedge.loopexit.split.loop.exit100:            ; preds = %.lr.ph
  %26 = trunc nuw nsw i64 %indvars.iv to i32
  br label %.critedge

.critedge:                                        ; preds = %25, %.critedge.loopexit.split.loop.exit100, %20
  %.069.lcssa = phi i32 [ 1, %20 ], [ %26, %.critedge.loopexit.split.loop.exit100 ], [ %6, %25 ]
  %27 = add nuw nsw i32 %.069.lcssa, 1
  %.not76 = icmp slt i32 %27, %6
  br i1 %.not76, label %29, label %28

28:                                               ; preds = %.critedge
  tail call void (ptr, i32, ptr, ...) @av_log(ptr noundef %0, i32 noundef 16, ptr noundef nonnull @.str.13) #9
  br label %86

29:                                               ; preds = %.critedge
  %30 = add nsw i32 %6, -1
  %31 = tail call i32 @av_new_packet(ptr noundef %3, i32 noundef %30) #9
  %32 = icmp slt i32 %31, 0
  br i1 %32, label %33, label %34

33:                                               ; preds = %29
  tail call void (ptr, i32, ptr, ...) @av_log(ptr noundef %0, i32 noundef 16, ptr noundef nonnull @.str.14) #9
  br label %86

34:                                               ; preds = %29
  %35 = getelementptr inbounds nuw i8, ptr %5, i64 1
  %36 = zext nneg i32 %.069.lcssa to i64
  %37 = getelementptr inbounds nuw i8, ptr %35, i64 %36
  %38 = getelementptr inbounds nuw i8, ptr %2, i64 8
  %39 = load i32, ptr %38, align 8, !tbaa !46
  %40 = getelementptr inbounds nuw i8, ptr %3, i64 36
  store i32 %39, ptr %40, align 4, !tbaa !47
  %41 = getelementptr inbounds nuw i8, ptr %3, i64 24
  %42 = load ptr, ptr %41, align 8, !tbaa !48
  %43 = sext i32 %6 to i64
  %44 = getelementptr inbounds i8, ptr %5, i64 %43
  %umax = tail call i32 @llvm.umax.i32(i32 %.069.lcssa, i32 1)
  %wide.trip.count95 = zext i32 %umax to i64
  br label %45

45:                                               ; preds = %34, %67
  %indvars.iv92 = phi i64 [ 0, %34 ], [ %indvars.iv.next93, %67 ]
  %.06587 = phi ptr [ %42, %34 ], [ %70, %67 ]
  %.06786 = phi ptr [ %37, %34 ], [ %54, %67 ]
  %indvars.iv.next93 = add nuw nsw i64 %indvars.iv92, 1
  %46 = getelementptr inbounds nuw i8, ptr %5, i64 %indvars.iv.next93
  %47 = load i8, ptr %46, align 1, !tbaa !43
  %48 = lshr i8 %47, 3
  %49 = and i8 %48, 15
  %50 = zext nneg i8 %49 to i64
  %51 = getelementptr inbounds nuw i8, ptr %.063, i64 %50
  %52 = load i8, ptr %51, align 1, !tbaa !43
  %53 = zext i8 %52 to i64
  %54 = getelementptr inbounds nuw i8, ptr %.06786, i64 %53
  %.not77 = icmp ugt ptr %54, %44
  br i1 %.not77, label %.thread, label %67

.thread:                                          ; preds = %45
  tail call void (ptr, i32, ptr, ...) @av_log(ptr noundef %0, i32 noundef 24, ptr noundef nonnull @.str.15) #9
  %55 = load ptr, ptr %41, align 8, !tbaa !48
  %56 = getelementptr inbounds nuw i8, ptr %3, i64 32
  %57 = load i32, ptr %56, align 8, !tbaa !49
  %58 = sext i32 %57 to i64
  %59 = getelementptr inbounds i8, ptr %55, i64 %58
  %60 = ptrtoint ptr %59 to i64
  %61 = ptrtoint ptr %.06587 to i64
  %62 = sub i64 %60, %61
  tail call void @llvm.memset.p0.i64(ptr align 1 %.06587, i8 0, i64 %62, i1 false)
  %63 = load ptr, ptr %41, align 8, !tbaa !48
  %64 = ptrtoint ptr %63 to i64
  %65 = sub i64 %61, %64
  %66 = trunc i64 %65 to i32
  store i32 %66, ptr %56, align 8, !tbaa !49
  br label %86

67:                                               ; preds = %45
  %68 = and i8 %47, 124
  %69 = getelementptr inbounds nuw i8, ptr %.06587, i64 1
  store i8 %68, ptr %.06587, align 1, !tbaa !43
  tail call void @llvm.memcpy.p0.p0.i64(ptr nonnull align 1 %69, ptr align 1 %.06786, i64 %53, i1 false)
  %70 = getelementptr inbounds nuw i8, ptr %69, i64 %53
  %exitcond96.not = icmp eq i64 %indvars.iv.next93, %wide.trip.count95
  br i1 %exitcond96.not, label %71, label %45

71:                                               ; preds = %67
  %72 = icmp ult ptr %54, %44
  br i1 %72, label %73, label %86

73:                                               ; preds = %71
  tail call void (ptr, i32, ptr, ...) @av_log(ptr noundef %0, i32 noundef 24, ptr noundef nonnull @.str.16) #9
  %74 = load ptr, ptr %41, align 8, !tbaa !48
  %75 = getelementptr inbounds nuw i8, ptr %3, i64 32
  %76 = load i32, ptr %75, align 8, !tbaa !49
  %77 = sext i32 %76 to i64
  %78 = getelementptr inbounds i8, ptr %74, i64 %77
  %79 = ptrtoint ptr %78 to i64
  %80 = ptrtoint ptr %70 to i64
  %81 = sub i64 %79, %80
  tail call void @llvm.memset.p0.i64(ptr nonnull align 1 %70, i8 0, i64 %81, i1 false)
  %82 = load ptr, ptr %41, align 8, !tbaa !48
  %83 = ptrtoint ptr %82 to i64
  %84 = sub i64 %80, %83
  %85 = trunc i64 %84 to i32
  store i32 %85, ptr %75, align 8, !tbaa !49
  br label %86

86:                                               ; preds = %.thread, %71, %73, %33, %28, %19, %15
  %.0 = phi i32 [ -1094995529, %19 ], [ -1094995529, %28 ], [ %31, %33 ], [ -1094995529, %15 ], [ 0, %73 ], [ 0, %71 ], [ 0, %.thread ]
  ret i32 %.0
}